TN:
SF:/home/infl72/Downloads/Bowling/BowlingGame.cpp
FN:3,_ZN11BowlingGame8addFrameERK5Frame
FN:10,_ZNK11BowlingGame14calculateScoreEv
FN:30,_ZNK11BowlingGame15getNextTwoRollsEm
FN:41,_ZNK11BowlingGame14getNextOneRollEm
FNDA:12,_ZNK11BowlingGame14getNextOneRollEm
FNDA:5,_ZNK11BowlingGame14calculateScoreEv
FNDA:61,_ZN11BowlingGame8addFrameERK5Frame
FNDA:14,_ZNK11BowlingGame15getNextTwoRollsEm
FNF:4
FNH:4
DA:3,61
DA:4,61
DA:5,1
DA:7,60
DA:8,60
DA:10,5
DA:11,5
DA:12,55
DA:13,50
DA:15,50
DA:16,45
DA:17,14
DA:18,31
DA:19,12
DA:21,19
DA:24,5
DA:27,5
DA:30,14
DA:31,14
DA:33,14
DA:34,14
DA:35,10
DA:37,4
DA:41,12
DA:42,12
DA:43,12
LF:26
LH:26
end_of_record
TN:
SF:/home/infl72/Downloads/Bowling/Frame.cpp
FN:3,_ZN5FrameC2Eiii
FN:5,_ZNK5Frame8getFirstEv
FN:9,_ZNK5Frame9getSecondEv
FN:13,_ZNK5Frame8getThirdEv
FN:17,_ZNK5Frame8isStrikeEv
FN:21,_ZNK5Frame7isSpareEv
FN:25,_ZNK5Frame8getTotalEv
FNDA:10,_ZNK5Frame8getTotalEv
FNDA:36,_ZNK5Frame7isSpareEv
FNDA:23,_ZNK5Frame9getSecondEv
FNDA:45,_ZNK5Frame8getFirstEv
FNDA:127,_ZN5FrameC2Eiii
FNDA:1,_ZNK5Frame8getThirdEv
FNDA:64,_ZNK5Frame8isStrikeEv
FNF:7
FNH:7
DA:3,127
DA:5,45
DA:6,45
DA:9,23
DA:10,23
DA:13,1
DA:14,1
DA:17,64
DA:18,64
DA:21,36
DA:22,36
DA:25,10
DA:26,10
LF:13
LH:13
end_of_record
TN:
SF:/home/infl72/Downloads/Bowling/Player.cpp
FN:3,_ZN6PlayerC2ENSt7__cxx1112basic_stringIcSt11char_traitsIcESaIcEEE
FN:5,_ZN6Player9playFrameEiii
FN:9,_ZNK6Player8getScoreEv
FN:13,_ZNK6Player7getNameB5cxx11Ev
FNDA:1,_ZNK6Player7getNameB5cxx11Ev
FNDA:1,_ZNK6Player8getScoreEv
FNDA:1,_ZN6PlayerC2ENSt7__cxx1112basic_stringIcSt11char_traitsIcESaIcEEE
FNDA:10,_ZN6Player9playFrameEiii
FNF:4
FNH:4
DA:3,1
DA:5,10
DA:6,10
DA:7,10
DA:9,1
DA:10,1
DA:13,1
DA:14,1
LF:8
LH:8
end_of_record
TN:
SF:/home/infl72/Downloads/Bowling/test/test.cpp
FN:8,_ZN21FrameTest_Strike_TestD0Ev
FN:8,_ZN21FrameTest_Strike_TestC2Ev
FN:8,_ZN21FrameTest_Strike_Test8TestBodyEv
FN:8,_ZN21FrameTest_Strike_TestD2Ev
FN:15,_ZN20FrameTest_Spare_TestC2Ev
FN:15,_ZN20FrameTest_Spare_Test8TestBodyEv
FN:15,_ZN20FrameTest_Spare_TestD2Ev
FN:15,_ZN20FrameTest_Spare_TestD0Ev
FN:22,_ZN24FrameTest_OpenFrame_TestD2Ev
FN:22,_ZN24FrameTest_OpenFrame_Test8TestBodyEv
FN:22,_ZN24FrameTest_OpenFrame_TestC2Ev
FN:22,_ZN24FrameTest_OpenFrame_TestD0Ev
FN:29,_ZN24FrameTest_ThirdRoll_TestD0Ev
FN:29,_ZN24FrameTest_ThirdRoll_TestC2Ev
FN:29,_ZN24FrameTest_ThirdRoll_TestD2Ev
FN:29,_ZN24FrameTest_ThirdRoll_Test8TestBodyEv
FN:37,_ZN31BowlingGameTest_AllStrikes_TestD0Ev
FN:37,_ZN31BowlingGameTest_AllStrikes_Test8TestBodyEv
FN:37,_ZN31BowlingGameTest_AllStrikes_TestD2Ev
FN:37,_ZN31BowlingGameTest_AllStrikes_TestC2Ev
FN:46,_ZN30BowlingGameTest_AllSpares_TestD0Ev
FN:46,_ZN30BowlingGameTest_AllSpares_TestD2Ev
FN:46,_ZN30BowlingGameTest_AllSpares_Test8TestBodyEv
FN:46,_ZN30BowlingGameTest_AllSpares_TestC2Ev
FN:55,_ZN34BowlingGameTest_AllOpenFrames_TestC2Ev
FN:55,_ZN34BowlingGameTest_AllOpenFrames_TestD0Ev
FN:55,_ZN34BowlingGameTest_AllOpenFrames_TestD2Ev
FN:55,_ZN34BowlingGameTest_AllOpenFrames_Test8TestBodyEv
FN:63,_ZN32BowlingGameTest_MixedFrames_TestD2Ev
FN:63,_ZN32BowlingGameTest_MixedFrames_Test8TestBodyEv
FN:63,_ZN32BowlingGameTest_MixedFrames_TestD0Ev
FN:63,_ZN32BowlingGameTest_MixedFrames_TestC2Ev
FN:81,_ZN32PlayerTest_ScoreComputation_TestD0Ev
FN:81,_ZN32PlayerTest_ScoreComputation_TestC2Ev
FN:81,_ZN32PlayerTest_ScoreComputation_Test8TestBodyEv
FN:81,_ZN32PlayerTest_ScoreComputation_TestD2Ev
FN:94,_ZN38BowlingGameTest_InvalidFrameCount_TestD2Ev
FN:94,_ZN38BowlingGameTest_InvalidFrameCount_TestC2Ev
FN:94,_ZN38BowlingGameTest_InvalidFrameCount_TestD0Ev
FN:94,_ZN38BowlingGameTest_InvalidFrameCount_Test8TestBodyEv
FN:102,_ZN24FrameTest_EdgeCases_Test8TestBodyEv
FN:102,_ZN24FrameTest_EdgeCases_TestC2Ev
FN:102,_ZN24FrameTest_EdgeCases_TestD0Ev
FN:102,_ZN24FrameTest_EdgeCases_TestD2Ev
FNDA:1,_ZN34BowlingGameTest_AllOpenFrames_TestC2Ev
FNDA:1,_ZN32BowlingGameTest_MixedFrames_TestD2Ev
FNDA:1,_ZN21FrameTest_Strike_Test8TestBodyEv
FNDA:1,_ZN31BowlingGameTest_AllStrikes_Test8TestBodyEv
FNDA:1,_ZN38BowlingGameTest_InvalidFrameCount_TestC2Ev
FNDA:1,_ZN24FrameTest_EdgeCases_TestC2Ev
FNDA:1,_ZN31BowlingGameTest_AllStrikes_TestD0Ev
FNDA:1,_ZN20FrameTest_Spare_TestC2Ev
FNDA:1,_ZN21FrameTest_Strike_TestC2Ev
FNDA:1,_ZN24FrameTest_ThirdRoll_TestD0Ev
FNDA:1,_ZN30BowlingGameTest_AllSpares_TestD0Ev
FNDA:1,_ZN21FrameTest_Strike_TestD0Ev
FNDA:1,_ZN38BowlingGameTest_InvalidFrameCount_TestD2Ev
FNDA:1,_ZN24FrameTest_EdgeCases_Test8TestBodyEv
FNDA:1,_ZN32PlayerTest_ScoreComputation_TestC2Ev
FNDA:1,_ZN24FrameTest_OpenFrame_Test8TestBodyEv
FNDA:1,_ZN24FrameTest_OpenFrame_TestD2Ev
FNDA:1,_ZN32PlayerTest_ScoreComputation_TestD0Ev
FNDA:1,_ZN32PlayerTest_ScoreComputation_TestD2Ev
FNDA:1,_ZN31BowlingGameTest_AllStrikes_TestC2Ev
FNDA:1,_ZN20FrameTest_Spare_TestD0Ev
FNDA:1,_ZN32BowlingGameTest_MixedFrames_TestC2Ev
FNDA:1,_ZN24FrameTest_ThirdRoll_Test8TestBodyEv
FNDA:1,_ZN32BowlingGameTest_MixedFrames_TestD0Ev
FNDA:1,_ZN21FrameTest_Strike_TestD2Ev
FNDA:1,_ZN24FrameTest_EdgeCases_TestD2Ev
FNDA:1,_ZN24FrameTest_ThirdRoll_TestD2Ev
FNDA:1,_ZN20FrameTest_Spare_TestD2Ev
FNDA:1,_ZN34BowlingGameTest_AllOpenFrames_Test8TestBodyEv
FNDA:1,_ZN38BowlingGameTest_InvalidFrameCount_Test8TestBodyEv
FNDA:1,_ZN24FrameTest_OpenFrame_TestD0Ev
FNDA:1,_ZN31BowlingGameTest_AllStrikes_TestD2Ev
FNDA:1,_ZN24FrameTest_ThirdRoll_TestC2Ev
FNDA:1,_ZN38BowlingGameTest_InvalidFrameCount_TestD0Ev
FNDA:1,_ZN24FrameTest_OpenFrame_TestC2Ev
FNDA:1,_ZN34BowlingGameTest_AllOpenFrames_TestD2Ev
FNDA:1,_ZN34BowlingGameTest_AllOpenFrames_TestD0Ev
FNDA:1,_ZN32PlayerTest_ScoreComputation_Test8TestBodyEv
FNDA:1,_ZN30BowlingGameTest_AllSpares_TestC2Ev
FNDA:1,_ZN32BowlingGameTest_MixedFrames_Test8TestBodyEv
FNDA:1,_ZN30BowlingGameTest_AllSpares_TestD2Ev
FNDA:1,_ZN30BowlingGameTest_AllSpares_Test8TestBodyEv
FNDA:1,_ZN20FrameTest_Spare_Test8TestBodyEv
FNDA:1,_ZN24FrameTest_EdgeCases_TestD0Ev
FNF:44
FNH:44
DA:8,4
DA:9,1
DA:10,1
DA:11,1
DA:12,1
DA:13,1
DA:15,4
DA:16,1
DA:17,1
DA:18,1
DA:19,1
DA:20,1
DA:22,4
DA:23,1
DA:24,1
DA:25,1
DA:26,1
DA:27,1
DA:29,4
DA:30,1
DA:31,1
DA:32,1
DA:33,1
DA:37,4
DA:38,1
DA:39,10
DA:40,9
DA:42,1
DA:43,1
DA:44,1
DA:46,4
DA:47,1
DA:48,10
DA:49,9
DA:51,1
DA:52,1
DA:53,1
DA:55,4
DA:56,1
DA:57,11
DA:58,10
DA:60,1
DA:61,1
DA:63,4
DA:64,1
DA:65,1
DA:66,1
DA:67,1
DA:68,1
DA:69,1
DA:70,1
DA:71,1
DA:72,1
DA:73,1
DA:74,1
DA:76,1
DA:77,1
DA:81,4
DA:82,3
DA:83,1
DA:84,1
DA:85,1
DA:86,7
DA:87,6
DA:88,1
DA:90,2
DA:91,1
DA:92,1
DA:94,4
DA:95,1
DA:96,11
DA:97,10
DA:99,2
DA:100,1
DA:102,4
DA:103,1
DA:104,1
DA:105,1
DA:106,1
DA:108,1
DA:109,1
DA:110,1
DA:111,1
LF:83
LH:83
end_of_record
